(dp1
S'output'
p2
S'<class \'psycopg2.ProgrammingError\'> \xd0\x9e\xd0\xa8\xd0\x98\xd0\x91\xd0\x9a\xd0\x90:  \xd0\xbe\xd1\x82\xd0\xbd\xd0\xbe\xd1\x88\xd0\xb5\xd0\xbd\xd0\xb8\xd0\xb5 "stock_w_fi" \xd1\x83\xd0\xb6\xd0\xb5 \xd1\x81\xd1\x83\xd1\x89\xd0\xb5\xd1\x81\xd1\x82\xd0\xb2\xd1\x83\xd0\xb5\xd1\x82\n'
p3
sS'layer'
p4
S'D:\\distr\\web2py\\applications\\stocker\\models\\db.py'
p5
sS'code'
p6
S'<code object <module> at 0D065260, file "D:\\distr\\web2py\\applications\\stocker\\models\\db.py", line 7>'
p7
sS'snapshot'
p8
(dp9
S'exception'
p10
(dp11
S'__module__'
p12
S"'psycopg2'"
p13
sS'__getslice__'
p14
S"<method-wrapper '__getslice__' of ProgrammingError object>"
p15
sS'__str__'
p16
S"<method-wrapper '__str__' of ProgrammingError object>"
p17
sS'__reduce__'
p18
S'<built-in method __reduce__ of ProgrammingError object>'
p19
sS'__dict__'
p20
S'{}'
p21
sS'__sizeof__'
p22
S'<built-in method __sizeof__ of ProgrammingError object>'
p23
sS'__weakref__'
p24
S'None'
p25
sS'message'
p26
S'\'\\xd0\\x9e\\xd0\\xa8\\xd0\\x98\\xd0\\x91\\xd0\\x9a\\xd0\\x90:  \\xd0\\xbe\\xd1\\x82\\xd0\\xbd\\xd0\\xbe\\xd1\\x88\\xd0\\xb5\\xd0\\xbd\\xd0\\xb8\\xd0\\xb5 "stock_w_fi" \\xd1\\x83\\xd0\\xb6\\xd0\\xb5 \\xd1\\x81\\xd1\\x83\\xd1\\x89\\xd0\\xb5\\xd1\\x81\\xd1\\x82\\xd0\\xb2\\xd1\\x83\\xd0\\xb5\\xd1\\x82\\n\''
p27
sS'__init__'
p28
S"<method-wrapper '__init__' of ProgrammingError object>"
p29
sS'__setattr__'
p30
S"<method-wrapper '__setattr__' of ProgrammingError object>"
p31
sS'__reduce_ex__'
p32
S'<built-in method __reduce_ex__ of ProgrammingError object>'
p33
sS'__new__'
p34
S'<built-in method __new__ of type object>'
p35
sS'diag'
p36
S'<psycopg2._psycopg.Diagnostics object>'
p37
sS'__format__'
p38
S'<built-in method __format__ of ProgrammingError object>'
p39
sS'__class__'
p40
S"<class 'psycopg2.ProgrammingError'>"
p41
sS'pgerror'
p42
S'\'\\xd0\\x9e\\xd0\\xa8\\xd0\\x98\\xd0\\x91\\xd0\\x9a\\xd0\\x90:  \\xd0\\xbe\\xd1\\x82\\xd0\\xbd\\xd0\\xbe\\xd1\\x88\\xd0\\xb5\\xd0\\xbd\\xd0\\xb8\\xd0\\xb5 "stock_w_fi" \\xd1\\x83\\xd0\\xb6\\xd0\\xb5 \\xd1\\x81\\xd1\\x83\\xd1\\x89\\xd0\\xb5\\xd1\\x81\\xd1\\x82\\xd0\\xb2\\xd1\\x83\\xd0\\xb5\\xd1\\x82\\n\''
p43
sS'__doc__'
p44
S"'Error related to database programming (SQL error, table not found etc).'"
p45
sS'__getitem__'
p46
S"<method-wrapper '__getitem__' of ProgrammingError object>"
p47
sS'__setstate__'
p48
S'<built-in method __setstate__ of ProgrammingError object>'
p49
sS'__getattribute__'
p50
S"<method-wrapper '__getattribute__' of ProgrammingError object>"
p51
sS'args'
p52
S'(\'\\xd0\\x9e\\xd0\\xa8\\xd0\\x98\\xd0\\x91\\xd0\\x9a\\xd0\\x90:  \\xd0\\xbe\\xd1\\x82\\xd0\\xbd\\xd0\\xbe\\xd1\\x88\\xd0\\xb5\\xd0\\xbd\\xd0\\xb8\\xd0\\xb5 "stock_w_fi" \\xd1\\x83\\xd0\\xb6\\xd0\\xb5 \\xd1\\x81\\xd1\\x83\\xd1\\x89\\xd0\\xb5\\xd1\\x81\\xd1\\x82\\xd0\\xb2\\xd1\\x83\\xd0\\xb5\\xd1\\x82\\n\',)'
p53
sS'__subclasshook__'
p54
S'<built-in method __subclasshook__ of type object>'
p55
sS'pgcode'
p56
S"'42P07'"
p57
sS'__unicode__'
p58
S'<built-in method __unicode__ of ProgrammingError object>'
p59
sS'cursor'
p60
S'<cursor object at 0x0C09F930; closed: 0>'
p61
sS'__delattr__'
p62
S"<method-wrapper '__delattr__' of ProgrammingError object>"
p63
sS'__repr__'
p64
S"<method-wrapper '__repr__' of ProgrammingError object>"
p65
sS'__hash__'
p66
S"<method-wrapper '__hash__' of ProgrammingError object>"
p67
ssS'evalue'
p68
S'\xd0\x9e\xd0\xa8\xd0\x98\xd0\x91\xd0\x9a\xd0\x90:  \xd0\xbe\xd1\x82\xd0\xbd\xd0\xbe\xd1\x88\xd0\xb5\xd0\xbd\xd0\xb8\xd0\xb5 "stock_w_fi" \xd1\x83\xd0\xb6\xd0\xb5 \xd1\x81\xd1\x83\xd1\x89\xd0\xb5\xd1\x81\xd1\x82\xd0\xb2\xd1\x83\xd0\xb5\xd1\x82\n'
p69
sS'request'
p70
cgluon.html
XML_unpickle
p71
(S's9\x8f\x00\x00<div><table><tr><td style="font-weight:bold;vertical-align:top;">ajax</td><td style="vertical-align:top;">:</td><td><div>True</div></td></tr><tr><td style="font-weight:bold;vertical-align:top;">application</td><td style="vertical-align:top;">:</td><td><div>stocker</div></td></tr><tr><td style="font-weight:bold;vertical-align:top;">args</td><td style="vertical-align:top;">:</td><td><div><table></table></div></td></tr><tr><td style="font-weight:bold;vertical-align:top;">cid</td><td style="vertical-align:top;">:</td><td><div>c780362341399</div></td></tr><tr><td style="font-weight:bold;vertical-align:top;">client</td><td style="vertical-align:top;">:</td><td><div>127.0.0.1</div></td></tr><tr><td style="font-weight:bold;vertical-align:top;">controller</td><td style="vertical-align:top;">:</td><td><div>appadmin</div></td></tr><tr><td style="font-weight:bold;vertical-align:top;">cookies</td><td style="vertical-align:top;">:</td><td><div><table><tr><td style="font-weight:bold;vertical-align:top;">adminLanguage</td><td style="vertical-align:top;">:</td><td><div>en<table><tr><td style="font-weight:bold;vertical-align:top;">comment</td><td style="vertical-align:top;">:</td><td><div></div></td></tr><tr><td style="font-weight:bold;vertical-align:top;">domain</td><td style="vertical-align:top;">:</td><td><div></div></td></tr><tr><td style="font-weight:bold;vertical-align:top;">expires</td><td style="vertical-align:top;">:</td><td><div></div></td></tr><tr><td style="font-weight:bold;vertical-align:top;">httponly</td><td style="vertical-align:top;">:</td><td><div></div></td></tr><tr><td style="font-weight:bold;vertical-align:top;">max-age</td><td style="vertical-align:top;">:</td><td><div></div></td></tr><tr><td style="font-weight:bold;vertical-align:top;">path</td><td style="vertical-align:top;">:</td><td><div></div></td></tr><tr><td style="font-weight:bold;vertical-align:top;">secure</td><td style="vertical-align:top;">:</td><td><div></div></td></tr><tr><td style="font-weight:bold;vertical-align:top;">version</td><td style="vertical-align:top;">:</td><td><div></div></td></tr></table></div></td></tr><tr><td style="font-weight:bold;vertical-align:top;">session_id_admin</td><td style="vertical-align:top;">:</td><td><div>127.0.0.1-d9c4e83b-ba05-444c-bb98-8221df78c239<table><tr><td style="font-weight:bold;vertical-align:top;">comment</td><td style="vertical-align:top;">:</td><td><div></div></td></tr><tr><td style="font-weight:bold;vertical-align:top;">domain</td><td style="vertical-align:top;">:</td><td><div></div></td></tr><tr><td style="font-weight:bold;vertical-align:top;">expires</td><td style="vertical-align:top;">:</td><td><div></div></td></tr><tr><td style="font-weight:bold;vertical-align:top;">httponly</td><td style="vertical-align:top;">:</td><td><div></div></td></tr><tr><td style="font-weight:bold;vertical-align:top;">max-age</td><td style="vertical-align:top;">:</td><td><div></div></td></tr><tr><td style="font-weight:bold;vertical-align:top;">path</td><td style="vertical-align:top;">:</td><td><div></div></td></tr><tr><td style="font-weight:bold;vertical-align:top;">secure</td><td style="vertical-align:top;">:</td><td><div></div></td></tr><tr><td style="font-weight:bold;vertical-align:top;">version</td><td style="vertical-align:top;">:</td><td><div></div></td></tr></table></div></td></tr><tr><td style="font-weight:bold;vertical-align:top;">session_id_ajaxspreadsheet</td><td style="vertical-align:top;">:</td><td><div>127.0.0.1-f06878a3-8656-4524-8a1f-6fbb9004077c<table><tr><td style="font-weight:bold;vertical-align:top;">comment</td><td style="vertical-align:top;">:</td><td><div></div></td></tr><tr><td style="font-weight:bold;vertical-align:top;">domain</td><td style="vertical-align:top;">:</td><td><div></div></td></tr><tr><td style="font-weight:bold;vertical-align:top;">expires</td><td style="vertical-align:top;">:</td><td><div></div></td></tr><tr><td style="font-weight:bold;vertical-align:top;">httponly</td><td style="vertical-align:top;">:</td><td><div></div></td></tr><tr><td style="font-weight:bold;vertical-align:top;">max-age</td><td style="vertical-align:top;">:</td><td><div></div></td></tr><tr><td style="font-weight:bold;vertical-align:top;">path</td><td style="vertical-align:top;">:</td><td><div></div></td></tr><tr><td style="font-weight:bold;vertical-align:top;">secure</td><td style="vertical-align:top;">:</td><td><div></div></td></tr><tr><td style="font-weight:bold;vertical-align:top;">version</td><td style="vertical-align:top;">:</td><td><div></div></td></tr></table></div></td></tr><tr><td style="font-weight:bold;vertical-align:top;">session_id_crm</td><td style="vertical-align:top;">:</td><td><div>127.0.0.1-9bcf7f02-a341-4ab0-965f-de24c12ea433<table><tr><td style="font-weight:bold;vertical-align:top;">comment</td><td style="vertical-align:top;">:</td><td><div></div></td></tr><tr><td style="font-weight:bold;vertical-align:top;">domain</td><td style="vertical-align:top;">:</td><td><div></div></td></tr><tr><td style="font-weight:bold;vertical-align:top;">expires</td><td style="vertical-align:top;">:</td><td><div></div></td></tr><tr><td style="font-weight:bold;vertical-align:top;">httponly</td><td style="vertical-align:top;">:</td><td><div></div></td></tr><tr><td style="font-weight:bold;vertical-align:top;">max-age</td><td style="vertical-align:top;">:</td><td><div></div></td></tr><tr><td style="font-weight:bold;vertical-align:top;">path</td><td style="vertical-align:top;">:</td><td><div></div></td></tr><tr><td style="font-weight:bold;vertical-align:top;">secure</td><td style="vertical-align:top;">:</td><td><div></div></td></tr><tr><td style="font-weight:bold;vertical-align:top;">version</td><td style="vertical-align:top;">:</td><td><div></div></td></tr></table></div></td></tr><tr><td style="font-weight:bold;vertical-align:top;">session_id_myapp</td><td style="vertical-align:top;">:</td><td><div>127.0.0.1-f78c8f7c-7cc0-436e-8d54-7f831452dc70<table><tr><td style="font-weight:bold;vertical-align:top;">comment</td><td style="vertical-align:top;">:</td><td><div></div></td></tr><tr><td style="font-weight:bold;vertical-align:top;">domain</td><td style="vertical-align:top;">:</td><td><div></div></td></tr><tr><td style="font-weight:bold;vertical-align:top;">expires</td><td style="vertical-align:top;">:</td><td><div></div></td></tr><tr><td style="font-weight:bold;vertical-align:top;">httponly</td><td style="vertical-align:top;">:</td><td><div></div></td></tr><tr><td style="font-weight:bold;vertical-align:top;">max-age</td><td style="vertical-align:top;">:</td><td><div></div></td></tr><tr><td style="font-weight:bold;vertical-align:top;">path</td><td style="vertical-align:top;">:</td><td><div></div></td></tr><tr><td style="font-weight:bold;vertical-align:top;">secure</td><td style="vertical-align:top;">:</td><td><div></div></td></tr><tr><td style="font-weight:bold;vertical-align:top;">version</td><td style="vertical-align:top;">:</td><td><div></div></td></tr></table></div></td></tr><tr><td style="font-weight:bold;vertical-align:top;">session_id_stockadv</td><td style="vertical-align:top;">:</td><td><div>127.0.0.1-1a013b4c-68a3-4ded-a682-5630a7029ba7<table><tr><td style="font-weight:bold;vertical-align:top;">comment</td><td style="vertical-align:top;">:</td><td><div></div></td></tr><tr><td style="font-weight:bold;vertical-align:top;">domain</td><td style="vertical-align:top;">:</td><td><div></div></td></tr><tr><td style="font-weight:bold;vertical-align:top;">expires</td><td style="vertical-align:top;">:</td><td><div></div></td></tr><tr><td style="font-weight:bold;vertical-align:top;">httponly</td><td style="vertical-align:top;">:</td><td><div></div></td></tr><tr><td style="font-weight:bold;vertical-align:top;">max-age</td><td style="vertical-align:top;">:</td><td><div></div></td></tr><tr><td style="font-weight:bold;vertical-align:top;">path</td><td style="vertical-align:top;">:</td><td><div></div></td></tr><tr><td style="font-weight:bold;vertical-align:top;">secure</td><td style="vertical-align:top;">:</td><td><div></div></td></tr><tr><td style="font-weight:bold;vertical-align:top;">version</td><td style="vertical-align:top;">:</td><td><div></div></td></tr></table></div></td></tr><tr><td style="font-weight:bold;vertical-align:top;">session_id_stocker</td><td style="vertical-align:top;">:</td><td><div>127.0.0.1-aff3abb3-b101-4f8c-bb71-e3e3d9691618<table><tr><td style="font-weight:bold;vertical-align:top;">comment</td><td style="vertical-align:top;">:</td><td><div></div></td></tr><tr><td style="font-weight:bold;vertical-align:top;">domain</td><td style="vertical-align:top;">:</td><td><div></div></td></tr><tr><td style="font-weight:bold;vertical-align:top;">expires</td><td style="vertical-align:top;">:</td><td><div></div></td></tr><tr><td style="font-weight:bold;vertical-align:top;">httponly</td><td style="vertical-align:top;">:</td><td><div></div></td></tr><tr><td style="font-weight:bold;vertical-align:top;">max-age</td><td style="vertical-align:top;">:</td><td><div></div></td></tr><tr><td style="font-weight:bold;vertical-align:top;">path</td><td style="vertical-align:top;">:</td><td><div></div></td></tr><tr><td style="font-weight:bold;vertical-align:top;">secure</td><td style="vertical-align:top;">:</td><td><div></div></td></tr><tr><td style="font-weight:bold;vertical-align:top;">version</td><td style="vertical-align:top;">:</td><td><div></div></td></tr></table></div></td></tr><tr><td style="font-weight:bold;vertical-align:top;">session_id_test</td><td style="vertical-align:top;">:</td><td><div>127.0.0.1-65bdc8b3-bc6b-4e55-ab82-ed8cd0b222f5<table><tr><td style="font-weight:bold;vertical-align:top;">comment</td><td style="vertical-align:top;">:</td><td><div></div></td></tr><tr><td style="font-weight:bold;vertical-align:top;">domain</td><td style="vertical-align:top;">:</td><td><div></div></td></tr><tr><td style="font-weight:bold;vertical-align:top;">expires</td><td style="vertical-align:top;">:</td><td><div></div></td></tr><tr><td style="font-weight:bold;vertical-align:top;">httponly</td><td style="vertical-align:top;">:</td><td><div></div></td></tr><tr><td style="font-weight:bold;vertical-align:top;">max-age</td><td style="vertical-align:top;">:</td><td><div></div></td></tr><tr><td style="font-weight:bold;vertical-align:top;">path</td><td style="vertical-align:top;">:</td><td><div></div></td></tr><tr><td style="font-weight:bold;vertical-align:top;">secure</td><td style="vertical-align:top;">:</td><td><div></div></td></tr><tr><td style="font-weight:bold;vertical-align:top;">version</td><td style="vertical-align:top;">:</td><td><div></div></td></tr></table></div></td></tr><tr><td style="font-weight:bold;vertical-align:top;">session_id_test_app</td><td style="vertical-align:top;">:</td><td><div>127.0.0.1-753afd2b-3831-4671-871f-478ee1c2f4c4<table><tr><td style="font-weight:bold;vertical-align:top;">comment</td><td style="vertical-align:top;">:</td><td><div></div></td></tr><tr><td style="font-weight:bold;vertical-align:top;">domain</td><td style="vertical-align:top;">:</td><td><div></div></td></tr><tr><td style="font-weight:bold;vertical-align:top;">expires</td><td style="vertical-align:top;">:</td><td><div></div></td></tr><tr><td style="font-weight:bold;vertical-align:top;">httponly</td><td style="vertical-align:top;">:</td><td><div></div></td></tr><tr><td style="font-weight:bold;vertical-align:top;">max-age</td><td style="vertical-align:top;">:</td><td><div></div></td></tr><tr><td style="font-weight:bold;vertical-align:top;">path</td><td style="vertical-align:top;">:</td><td><div></div></td></tr><tr><td style="font-weight:bold;vertical-align:top;">secure</td><td style="vertical-align:top;">:</td><td><div></div></td></tr><tr><td style="font-weight:bold;vertical-align:top;">version</td><td style="vertical-align:top;">:</td><td><div></div></td></tr></table></div></td></tr><tr><td style="font-weight:bold;vertical-align:top;">session_id_videolibrary</td><td style="vertical-align:top;">:</td><td><div>127.0.0.1-7e84da47-6838-4259-998d-d802c1bc3c0a<table><tr><td style="font-weight:bold;vertical-align:top;">comment</td><td style="vertical-align:top;">:</td><td><div></div></td></tr><tr><td style="font-weight:bold;vertical-align:top;">domain</td><td style="vertical-align:top;">:</td><td><div></div></td></tr><tr><td style="font-weight:bold;vertical-align:top;">expires</td><td style="vertical-align:top;">:</td><td><div></div></td></tr><tr><td style="font-weight:bold;vertical-align:top;">httponly</td><td style="vertical-align:top;">:</td><td><div></div></td></tr><tr><td style="font-weight:bold;vertical-align:top;">max-age</td><td style="vertical-align:top;">:</td><td><div></div></td></tr><tr><td style="font-weight:bold;vertical-align:top;">path</td><td style="vertical-align:top;">:</td><td><div></div></td></tr><tr><td style="font-weight:bold;vertical-align:top;">secure</td><td style="vertical-align:top;">:</td><td><div></div></td></tr><tr><td style="font-weight:bold;vertical-align:top;">version</td><td style="vertical-align:top;">:</td><td><div></div></td></tr></table></div></td></tr><tr><td style="font-weight:bold;vertical-align:top;">session_id_welcome</td><td style="vertical-align:top;">:</td><td><div>127.0.0.1-506d1a7a-058d-4b84-8e8a-19f4c22fe8c9<table><tr><td style="font-weight:bold;vertical-align:top;">comment</td><td style="vertical-align:top;">:</td><td><div></div></td></tr><tr><td style="font-weight:bold;vertical-align:top;">domain</td><td style="vertical-align:top;">:</td><td><div></div></td></tr><tr><td style="font-weight:bold;vertical-align:top;">expires</td><td style="vertical-align:top;">:</td><td><div></div></td></tr><tr><td style="font-weight:bold;vertical-align:top;">httponly</td><td style="vertical-align:top;">:</td><td><div></div></td></tr><tr><td style="font-weight:bold;vertical-align:top;">max-age</td><td style="vertical-align:top;">:</td><td><div></div></td></tr><tr><td style="font-weight:bold;vertical-align:top;">path</td><td style="vertical-align:top;">:</td><td><div></div></td></tr><tr><td style="font-weight:bold;vertical-align:top;">secure</td><td style="vertical-align:top;">:</td><td><div></div></td></tr><tr><td style="font-weight:bold;vertical-align:top;">version</td><td style="vertical-align:top;">:</td><td><div></div></td></tr></table></div></td></tr></table></div></td></tr><tr><td style="font-weight:bold;vertical-align:top;">env</td><td style="vertical-align:top;">:</td><td><div><table><tr><td style="font-weight:bold;vertical-align:top;">CONTENT_TYPE</td><td style="vertical-align:top;">:</td><td><div>application/x-www-form-urlencoded; charset=UTF-8</div></td></tr><tr><td style="font-weight:bold;vertical-align:top;">HTTP_ACCEPT</td><td style="vertical-align:top;">:</td><td><div>*/*</div></td></tr><tr><td style="font-weight:bold;vertical-align:top;">HTTP_ACCEPT_ENCODING</td><td style="vertical-align:top;">:</td><td><div>gzip, deflate, br</div></td></tr><tr><td style="font-weight:bold;vertical-align:top;">HTTP_ACCEPT_LANGUAGE</td><td style="vertical-align:top;">:</td><td><div>ru,en;q=0.8,uk;q=0.6,de;q=0.4</div></td></tr><tr><td style="font-weight:bold;vertical-align:top;">HTTP_CONNECTION</td><td style="vertical-align:top;">:</td><td><div>keep-alive</div></td></tr><tr><td style="font-weight:bold;vertical-align:top;">HTTP_CONTENT_TYPE</td><td style="vertical-align:top;">:</td><td><div>application/x-www-form-urlencoded; charset=UTF-8</div></td></tr><tr><td style="font-weight:bold;vertical-align:top;">HTTP_COOKIE</td><td style="vertical-align:top;">:</td><td><div>session_id_test_app=127.0.0.1-753afd2b-3831-4671-871f-478ee1c2f4c4; session_id_ajaxspreadsheet=127.0.0.1-f06878a3-8656-4524-8a1f-6fbb9004077c; session_id_videolibrary=127.0.0.1-7e84da47-6838-4259-998d-d802c1bc3c0a; session_id_crm=127.0.0.1-9bcf7f02-a341-4ab0-965f-de24c12ea433; session_id_stockadv=127.0.0.1-1a013b4c-68a3-4ded-a682-5630a7029ba7; session_id_test=127.0.0.1-65bdc8b3-bc6b-4e55-ab82-ed8cd0b222f5; session_id_welcome=127.0.0.1-506d1a7a-058d-4b84-8e8a-19f4c22fe8c9; session_id_myapp=127.0.0.1-f78c8f7c-7cc0-436e-8d54-7f831452dc70; adminLanguage=en; session_id_stocker=127.0.0.1-aff3abb3-b101-4f8c-bb71-e3e3d9691618; session_id_admin=127.0.0.1-d9c4e83b-ba05-444c-bb98-8221df78c239</div></td></tr><tr><td style="font-weight:bold;vertical-align:top;">HTTP_HOST</td><td style="vertical-align:top;">:</td><td><div>127.0.0.1:8000</div></td></tr><tr><td style="font-weight:bold;vertical-align:top;">HTTP_REFERER</td><td style="vertical-align:top;">:</td><td><div>http://127.0.0.1:8000/admin/default/edit/stocker/models/db.py?id=models__db__py</div></td></tr><tr><td style="font-weight:bold;vertical-align:top;">HTTP_USER_AGENT</td><td style="vertical-align:top;">:</td><td><div>Mozilla/5.0 (Windows NT 6.1; WOW64) AppleWebKit/537.36 (KHTML, like Gecko) Chrome/61.0.3163.100 YaBrowser/17.10.1.1205 Yowser/2.5 Safari/537.36</div></td></tr><tr><td style="font-weight:bold;vertical-align:top;">HTTP_WEB2PY_COMPONENT_ELEMENT</td><td style="vertical-align:top;">:</td><td><div>c780362341399</div></td></tr><tr><td style="font-weight:bold;vertical-align:top;">HTTP_WEB2PY_COMPONENT_LOCATION</td><td style="vertical-align:top;">:</td><td><div>http://127.0.0.1:8000/admin/default/edit/stocker/models/db.py?id=models__db__py</div></td></tr><tr><td style="font-weight:bold;vertical-align:top;">HTTP_X_REQUESTED_WITH</td><td style="vertical-align:top;">:</td><td><div>XMLHttpRequest</div></td></tr><tr><td style="font-weight:bold;vertical-align:top;">PATH_INFO</td><td style="vertical-align:top;">:</td><td><div>/stocker/appadmin/hooks</div></td></tr><tr><td style="font-weight:bold;vertical-align:top;">QUERY_STRING</td><td style="vertical-align:top;">:</td><td><div></div></td></tr><tr><td style="font-weight:bold;vertical-align:top;">REMOTE_ADDR</td><td style="vertical-align:top;">:</td><td><div>127.0.0.1</div></td></tr><tr><td style="font-weight:bold;vertical-align:top;">REMOTE_PORT</td><td style="vertical-align:top;">:</td><td><div>54010</div></td></tr><tr><td style="font-weight:bold;vertical-align:top;">REQUEST_METHOD</td><td style="vertical-align:top;">:</td><td><div>GET</div></td></tr><tr><td style="font-weight:bold;vertical-align:top;">SCRIPT_NAME</td><td style="vertical-align:top;">:</td><td><div></div></td></tr><tr><td style="font-weight:bold;vertical-align:top;">SERVER_NAME</td><td style="vertical-align:top;">:</td><td><div>D-AKSENOV</div></td></tr><tr><td style="font-weight:bold;vertical-align:top;">SERVER_PORT</td><td style="vertical-align:top;">:</td><td><div>8000</div></td></tr><tr><td style="font-weight:bold;vertical-align:top;">SERVER_PROTOCOL</td><td style="vertical-align:top;">:</td><td><div>HTTP/1.1</div></td></tr><tr><td style="font-weight:bold;vertical-align:top;">SERVER_SOFTWARE</td><td style="vertical-align:top;">:</td><td><div>Rocket 1.2.6</div></td></tr><tr><td style="font-weight:bold;vertical-align:top;">app_folders</td><td style="vertical-align:top;">:</td><td><div>set([&#x27;D:\\\\distr\\\\web2py\\\\applications\\\\Test\\\\&#x27;, &#x27;D:\\\\distr\\\\web2py\\\\applications\\\\admin\\\\&#x27;, &#x27;D:\\\\distr\\\\web2py\\\\applications\\\\welcome\\\\&#x27;, &#x27;D:\\\\distr\\\\web2py\\\\applications\\\\myapp\\\\&#x27;, &#x27;D:\\\\distr\\\\web2py\\\\applications\\\\stocker\\\\&#x27;])</div></td></tr><tr><td style="font-weight:bold;vertical-align:top;">applications_parent</td><td style="vertical-align:top;">:</td><td><div>D:\\distr\\web2py</div></td></tr><tr><td style="font-weight:bold;vertical-align:top;">cmd_args</td><td style="vertical-align:top;">:</td><td><div><table></table></div></td></tr><tr><td style="font-weight:bold;vertical-align:top;">cmd_options</td><td style="vertical-align:top;">:</td><td><div>&lt;Values at 0x2ec8378: {&#x27;verbose&#x27;: False, &#x27;ip&#x27;: &#x27;127.0.0.1&#x27;, &#x27;debuglevel&#x27;: 30, &#x27;with_scheduler&#x27;: False, &#x27;shutdown_timeout&#x27;: 5, &#x27;taskbar&#x27;: False, &#x27;with_coverage&#x27;: False, &#x27;pid_filename&#x27;: &#x27;httpserver.pid&#x27;, &#x27;maxthreads&#x27;: None, &#x27;softcron&#x27;: False, &#x27;server_name&#x27;: &#x27;D-AKSENOV&#x27;, &#x27;bpython&#x27;: False, &#x27;nogui&#x27;: False, &#x27;port&#x27;: 8000, &#x27;print_errors&#x27;: False, &#x27;extcron&#x27;: False, &#x27;runcron&#x27;: False, &#x27;run_system_tests&#x27;: False, &#x27;test&#x27;: None, &#x27;folder&#x27;: &#x27;D:\\\\distr\\\\web2py&#x27;, &#x27;config&#x27;: &#x27;&#x27;, &#x27;minthreads&#x27;: None, &#x27;shell&#x27;: None, &#x27;run&#x27;: &#x27;&#x27;, &#x27;log_filename&#x27;: &#x27;httpserver.log&#x27;, &#x27;profiler_dir&#x27;: None, &#x27;args&#x27;: [&#x27;&#x27;], &#x27;socket_timeout&#x27;: 5, &#x27;ssl_ca_certificate&#x27;: None, &#x27;scheduler&#x27;: None, &#x27;interfaces&#x27;: None, &#x27;ssl_private_key&#x27;: &#x27;&#x27;, &#x27;gae&#x27;: None, &#x27;password&#x27;: &#x27;******&#x27;, &#x27;request_queue_size&#x27;: 5, &#x27;ssl_certificate&#x27;: &#x27;&#x27;, &#x27;cronjob&#x27;: False, &#x27;numthreads&#x27;: None, &#x27;quiet&#x27;: False, &#x27;import_models&#x27;: False, &#x27;timeout&#x27;: 10, &#x27;plain&#x27;: False, &#x27;nobanner&#x27;: False}&gt;</div></td></tr><tr><td style="font-weight:bold;vertical-align:top;">content_type</td><td style="vertical-align:top;">:</td><td><div>application/x-www-form-urlencoded; charset=UTF-8</div></td></tr><tr><td style="font-weight:bold;vertical-align:top;">db_sessions</td><td style="vertical-align:top;">:</td><td><div>set([])</div></td></tr><tr><td style="font-weight:bold;vertical-align:top;">debugging</td><td style="vertical-align:top;">:</td><td><div>True</div></td></tr><tr><td style="font-weight:bold;vertical-align:top;">gluon_parent</td><td style="vertical-align:top;">:</td><td><div>D:\\distr\\web2py</div></td></tr><tr><td style="font-weight:bold;vertical-align:top;">http_accept</td><td style="vertical-align:top;">:</td><td><div>*/*</div></td></tr><tr><td style="font-weight:bold;vertical-align:top;">http_accept_encoding</td><td style="vertical-align:top;">:</td><td><div>gzip, deflate, br</div></td></tr><tr><td style="font-weight:bold;vertical-align:top;">http_accept_language</td><td style="vertical-align:top;">:</td><td><div>ru,en;q=0.8,uk;q=0.6,de;q=0.4</div></td></tr><tr><td style="font-weight:bold;vertical-align:top;">http_connection</td><td style="vertical-align:top;">:</td><td><div>keep-alive</div></td></tr><tr><td style="font-weight:bold;vertical-align:top;">http_content_type</td><td style="vertical-align:top;">:</td><td><div>application/x-www-form-urlencoded; charset=UTF-8</div></td></tr><tr><td style="font-weight:bold;vertical-align:top;">http_cookie</td><td style="vertical-align:top;">:</td><td><div>session_id_test_app=127.0.0.1-753afd2b-3831-4671-871f-478ee1c2f4c4; session_id_ajaxspreadsheet=127.0.0.1-f06878a3-8656-4524-8a1f-6fbb9004077c; session_id_videolibrary=127.0.0.1-7e84da47-6838-4259-998d-d802c1bc3c0a; session_id_crm=127.0.0.1-9bcf7f02-a341-4ab0-965f-de24c12ea433; session_id_stockadv=127.0.0.1-1a013b4c-68a3-4ded-a682-5630a7029ba7; session_id_test=127.0.0.1-65bdc8b3-bc6b-4e55-ab82-ed8cd0b222f5; session_id_welcome=127.0.0.1-506d1a7a-058d-4b84-8e8a-19f4c22fe8c9; session_id_myapp=127.0.0.1-f78c8f7c-7cc0-436e-8d54-7f831452dc70; adminLanguage=en; session_id_stocker=127.0.0.1-aff3abb3-b101-4f8c-bb71-e3e3d9691618; session_id_admin=127.0.0.1-d9c4e83b-ba05-444c-bb98-8221df78c239</div></td></tr><tr><td style="font-weight:bold;vertical-align:top;">http_host</td><td style="vertical-align:top;">:</td><td><div>127.0.0.1:8000</div></td></tr><tr><td style="font-weight:bold;vertical-align:top;">http_referer</td><td style="vertical-align:top;">:</td><td><div>http://127.0.0.1:8000/admin/default/edit/stocker/models/db.py?id=models__db__py</div></td></tr><tr><td style="font-weight:bold;vertical-align:top;">http_user_agent</td><td style="vertical-align:top;">:</td><td><div>Mozilla/5.0 (Windows NT 6.1; WOW64) AppleWebKit/537.36 (KHTML, like Gecko) Chrome/61.0.3163.100 YaBrowser/17.10.1.1205 Yowser/2.5 Safari/537.36</div></td></tr><tr><td style="font-weight:bold;vertical-align:top;">http_web2py_component_element</td><td style="vertical-align:top;">:</td><td><div>c780362341399</div></td></tr><tr><td style="font-weight:bold;vertical-align:top;">http_web2py_component_location</td><td style="vertical-align:top;">:</td><td><div>http://127.0.0.1:8000/admin/default/edit/stocker/models/db.py?id=models__db__py</div></td></tr><tr><td style="font-weight:bold;vertical-align:top;">http_x_requested_with</td><td style="vertical-align:top;">:</td><td><div>XMLHttpRequest</div></td></tr><tr><td style="font-weight:bold;vertical-align:top;">is_jython</td><td style="vertical-align:top;">:</td><td><div>False</div></td></tr><tr><td style="font-weight:bold;vertical-align:top;">is_py2</td><td style="vertical-align:top;">:</td><td><div>True</div></td></tr><tr><td style="font-weight:bold;vertical-align:top;">is_pypy</td><td style="vertical-align:top;">:</td><td><div>False</div></td></tr><tr><td style="font-weight:bold;vertical-align:top;">is_source</td><td style="vertical-align:top;">:</td><td><div>False</div></td></tr><tr><td style="font-weight:bold;vertical-align:top;">local_hosts</td><td style="vertical-align:top;">:</td><td><div><table><tr><td><div>172.24.12.7</div></td></tr><tr><td><div>::ffff:127.0.0.1</div></td></tr><tr><td><div>::1</div></td></tr><tr><td><div>fe80::79ba:e1a6:3ce6:9719%11</div></td></tr><tr><td><div>10.19.32.3</div></td></tr><tr><td><div>D-AKSENOV.fors.ru</div></td></tr><tr><td><div>fe80::1dba:fe01:6fb3:3591%25</div></td></tr><tr><td><div>10.19.90.58</div></td></tr><tr><td><div>192.168.56.1</div></td></tr><tr><td><div>fe80::70ae:4ac9:39b8:d3cc%13</div></td></tr><tr><td><div>127.0.0.1</div></td></tr><tr><td><div>D-AKSENOV</div></td></tr></table></div></td></tr><tr><td style="font-weight:bold;vertical-align:top;">path_info</td><td style="vertical-align:top;">:</td><td><div>/stocker/appadmin/hooks</div></td></tr><tr><td style="font-weight:bold;vertical-align:top;">query_string</td><td style="vertical-align:top;">:</td><td><div></div></td></tr><tr><td style="font-weight:bold;vertical-align:top;">remote_addr</td><td style="vertical-align:top;">:</td><td><div>127.0.0.1</div></td></tr><tr><td style="font-weight:bold;vertical-align:top;">remote_port</td><td style="vertical-align:top;">:</td><td><div>54010</div></td></tr><tr><td style="font-weight:bold;vertical-align:top;">request_method</td><td style="vertical-align:top;">:</td><td><div>GET</div></td></tr><tr><td style="font-weight:bold;vertical-align:top;">request_uri</td><td style="vertical-align:top;">:</td><td><div>/stocker/appadmin/hooks</div></td></tr><tr><td style="font-weight:bold;vertical-align:top;">script_name</td><td style="vertical-align:top;">:</td><td><div></div></td></tr><tr><td style="font-weight:bold;vertical-align:top;">server_name</td><td style="vertical-align:top;">:</td><td><div>D-AKSENOV</div></td></tr><tr><td style="font-weight:bold;vertical-align:top;">server_port</td><td style="vertical-align:top;">:</td><td><div>8000</div></td></tr><tr><td style="font-weight:bold;vertical-align:top;">server_protocol</td><td style="vertical-align:top;">:</td><td><div>HTTP/1.1</div></td></tr><tr><td style="font-weight:bold;vertical-align:top;">server_software</td><td style="vertical-align:top;">:</td><td><div>Rocket 1.2.6</div></td></tr><tr><td style="font-weight:bold;vertical-align:top;">web2py_path</td><td style="vertical-align:top;">:</td><td><div>D:\\distr\\web2py</div></td></tr><tr><td style="font-weight:bold;vertical-align:top;">web2py_version</td><td style="vertical-align:top;">:</td><td><div>2.16.1-stable+timestamp.2017.11.14.05.54.25</div></td></tr><tr><td style="font-weight:bold;vertical-align:top;">wsgi.errors</td><td style="vertical-align:top;">:</td><td><div>&lt;open file &#x27;&lt;stderr&gt;&#x27;, mode &#x27;w&#x27; at 0x01DCD0D0&gt;</div></td></tr><tr><td style="font-weight:bold;vertical-align:top;">wsgi.file_wrapper</td><td style="vertical-align:top;">:</td><td><div>&lt;class wsgiref.util.FileWrapper at 0x031AE308&gt;</div></td></tr><tr><td style="font-weight:bold;vertical-align:top;">wsgi.input</td><td style="vertical-align:top;">:</td><td><div>&lt;socket._fileobject object at 0x0CFE2B70&gt;</div></td></tr><tr><td style="font-weight:bold;vertical-align:top;">wsgi.multiprocess</td><td style="vertical-align:top;">:</td><td><div>False</div></td></tr><tr><td style="font-weight:bold;vertical-align:top;">wsgi.multithread</td><td style="vertical-align:top;">:</td><td><div>True</div></td></tr><tr><td style="font-weight:bold;vertical-align:top;">wsgi.run_once</td><td style="vertical-align:top;">:</td><td><div>False</div></td></tr><tr><td style="font-weight:bold;vertical-align:top;">wsgi.url_scheme</td><td style="vertical-align:top;">:</td><td><div>http</div></td></tr><tr><td style="font-weight:bold;vertical-align:top;">wsgi.version</td><td style="vertical-align:top;">:</td><td><div><table><tr><td><div>1</div></td></tr><tr><td><div>0</div></td></tr></table></div></td></tr><tr><td style="font-weight:bold;vertical-align:top;">wsgi_errors</td><td style="vertical-align:top;">:</td><td><div>&lt;open file &#x27;&lt;stderr&gt;&#x27;, mode &#x27;w&#x27; at 0x01DCD0D0&gt;</div></td></tr><tr><td style="font-weight:bold;vertical-align:top;">wsgi_file_wrapper</td><td style="vertical-align:top;">:</td><td><div>&lt;class wsgiref.util.FileWrapper at 0x031AE308&gt;</div></td></tr><tr><td style="font-weight:bold;vertical-align:top;">wsgi_input</td><td style="vertical-align:top;">:</td><td><div>&lt;socket._fileobject object at 0x0CFE2B70&gt;</div></td></tr><tr><td style="font-weight:bold;vertical-align:top;">wsgi_multiprocess</td><td style="vertical-align:top;">:</td><td><div>False</div></td></tr><tr><td style="font-weight:bold;vertical-align:top;">wsgi_multithread</td><td style="vertical-align:top;">:</td><td><div>True</div></td></tr><tr><td style="font-weight:bold;vertical-align:top;">wsgi_run_once</td><td style="vertical-align:top;">:</td><td><div>False</div></td></tr><tr><td style="font-weight:bold;vertical-align:top;">wsgi_url_scheme</td><td style="vertical-align:top;">:</td><td><div>http</div></td></tr><tr><td style="font-weight:bold;vertical-align:top;">wsgi_version</td><td style="vertical-align:top;">:</td><td><div><table><tr><td><div>1</div></td></tr><tr><td><div>0</div></td></tr></table></div></td></tr></table></div></td></tr><tr><td style="font-weight:bold;vertical-align:top;">extension</td><td style="vertical-align:top;">:</td><td><div>html</div></td></tr><tr><td style="font-weight:bold;vertical-align:top;">folder</td><td style="vertical-align:top;">:</td><td><div>D:\\distr\\web2py\\applications\\stocker\\</div></td></tr><tr><td style="font-weight:bold;vertical-align:top;">function</td><td style="vertical-align:top;">:</td><td><div>hooks</div></td></tr><tr><td style="font-weight:bold;vertical-align:top;">global_settings</td><td style="vertical-align:top;">:</td><td><div><table><tr><td style="font-weight:bold;vertical-align:top;">app_folders</td><td style="vertical-align:top;">:</td><td><div>set([&#x27;D:\\\\distr\\\\web2py\\\\applications\\\\Test\\\\&#x27;, &#x27;D:\\\\distr\\\\web2py\\\\applications\\\\admin\\\\&#x27;, &#x27;D:\\\\distr\\\\web2py\\\\applications\\\\welcome\\\\&#x27;, &#x27;D:\\\\distr\\\\web2py\\\\applications\\\\myapp\\\\&#x27;, &#x27;D:\\\\distr\\\\web2py\\\\applications\\\\stocker\\\\&#x27;])</div></td></tr><tr><td style="font-weight:bold;vertical-align:top;">applications_parent</td><td style="vertical-align:top;">:</td><td><div>D:\\distr\\web2py</div></td></tr><tr><td style="font-weight:bold;vertical-align:top;">cmd_args</td><td style="vertical-align:top;">:</td><td><div><table></table></div></td></tr><tr><td style="font-weight:bold;vertical-align:top;">cmd_options</td><td style="vertical-align:top;">:</td><td><div>&lt;Values at 0x2ec8378: {&#x27;verbose&#x27;: False, &#x27;ip&#x27;: &#x27;127.0.0.1&#x27;, &#x27;debuglevel&#x27;: 30, &#x27;with_scheduler&#x27;: False, &#x27;shutdown_timeout&#x27;: 5, &#x27;taskbar&#x27;: False, &#x27;with_coverage&#x27;: False, &#x27;pid_filename&#x27;: &#x27;httpserver.pid&#x27;, &#x27;maxthreads&#x27;: None, &#x27;softcron&#x27;: False, &#x27;server_name&#x27;: &#x27;D-AKSENOV&#x27;, &#x27;bpython&#x27;: False, &#x27;nogui&#x27;: False, &#x27;port&#x27;: 8000, &#x27;print_errors&#x27;: False, &#x27;extcron&#x27;: False, &#x27;runcron&#x27;: False, &#x27;run_system_tests&#x27;: False, &#x27;test&#x27;: None, &#x27;folder&#x27;: &#x27;D:\\\\distr\\\\web2py&#x27;, &#x27;config&#x27;: &#x27;&#x27;, &#x27;minthreads&#x27;: None, &#x27;shell&#x27;: None, &#x27;run&#x27;: &#x27;&#x27;, &#x27;log_filename&#x27;: &#x27;httpserver.log&#x27;, &#x27;profiler_dir&#x27;: None, &#x27;args&#x27;: [&#x27;&#x27;], &#x27;socket_timeout&#x27;: 5, &#x27;ssl_ca_certificate&#x27;: None, &#x27;scheduler&#x27;: None, &#x27;interfaces&#x27;: None, &#x27;ssl_private_key&#x27;: &#x27;&#x27;, &#x27;gae&#x27;: None, &#x27;password&#x27;: &#x27;******&#x27;, &#x27;request_queue_size&#x27;: 5, &#x27;ssl_certificate&#x27;: &#x27;&#x27;, &#x27;cronjob&#x27;: False, &#x27;numthreads&#x27;: None, &#x27;quiet&#x27;: False, &#x27;import_models&#x27;: False, &#x27;timeout&#x27;: 10, &#x27;plain&#x27;: False, &#x27;nobanner&#x27;: False}&gt;</div></td></tr><tr><td style="font-weight:bold;vertical-align:top;">db_sessions</td><td style="vertical-align:top;">:</td><td><div>set([])</div></td></tr><tr><td style="font-weight:bold;vertical-align:top;">debugging</td><td style="vertical-align:top;">:</td><td><div>True</div></td></tr><tr><td style="font-weight:bold;vertical-align:top;">gluon_parent</td><td style="vertical-align:top;">:</td><td><div>D:\\distr\\web2py</div></td></tr><tr><td style="font-weight:bold;vertical-align:top;">is_jython</td><td style="vertical-align:top;">:</td><td><div>False</div></td></tr><tr><td style="font-weight:bold;vertical-align:top;">is_py2</td><td style="vertical-align:top;">:</td><td><div>True</div></td></tr><tr><td style="font-weight:bold;vertical-align:top;">is_pypy</td><td style="vertical-align:top;">:</td><td><div>False</div></td></tr><tr><td style="font-weight:bold;vertical-align:top;">is_source</td><td style="vertical-align:top;">:</td><td><div>False</div></td></tr><tr><td style="font-weight:bold;vertical-align:top;">local_hosts</td><td style="vertical-align:top;">:</td><td><div><table><tr><td><div>172.24.12.7</div></td></tr><tr><td><div>::ffff:127.0.0.1</div></td></tr><tr><td><div>::1</div></td></tr><tr><td><div>fe80::79ba:e1a6:3ce6:9719%11</div></td></tr><tr><td><div>10.19.32.3</div></td></tr><tr><td><div>D-AKSENOV.fors.ru</div></td></tr><tr><td><div>fe80::1dba:fe01:6fb3:3591%25</div></td></tr><tr><td><div>10.19.90.58</div></td></tr><tr><td><div>192.168.56.1</div></td></tr><tr><td><div>fe80::70ae:4ac9:39b8:d3cc%13</div></td></tr><tr><td><div>127.0.0.1</div></td></tr><tr><td><div>D-AKSENOV</div></td></tr></table></div></td></tr><tr><td style="font-weight:bold;vertical-align:top;">web2py_version</td><td style="vertical-align:top;">:</td><td><div>2.16.1-stable+timestamp.2017.11.14.05.54.25</div></td></tr></table></div></td></tr><tr><td style="font-weight:bold;vertical-align:top;">is_https</td><td style="vertical-align:top;">:</td><td><div>False</div></td></tr><tr><td style="font-weight:bold;vertical-align:top;">is_local</td><td style="vertical-align:top;">:</td><td><div>True</div></td></tr><tr><td style="font-weight:bold;vertical-align:top;">is_restful</td><td style="vertical-align:top;">:</td><td><div>False</div></td></tr><tr><td style="font-weight:bold;vertical-align:top;">is_scheduler</td><td style="vertical-align:top;">:</td><td><div>False</div></td></tr><tr><td style="font-weight:bold;vertical-align:top;">is_shell</td><td style="vertical-align:top;">:</td><td><div>False</div></td></tr><tr><td style="font-weight:bold;vertical-align:top;">now</td><td style="vertical-align:top;">:</td><td><div>datetime.datetime(2017, 12, 12, 16, 22, 15, 997000)</div></td></tr><tr><td style="font-weight:bold;vertical-align:top;">raw_args</td><td style="vertical-align:top;">:</td><td><div></div></td></tr><tr><td style="font-weight:bold;vertical-align:top;">raw_extension</td><td style="vertical-align:top;">:</td><td><div>None</div></td></tr><tr><td style="font-weight:bold;vertical-align:top;">url</td><td style="vertical-align:top;">:</td><td><div>/stocker/appadmin/hooks</div></td></tr><tr><td style="font-weight:bold;vertical-align:top;">utcnow</td><td style="vertical-align:top;">:</td><td><div>datetime.datetime(2017, 12, 12, 13, 22, 15, 997000)</div></td></tr><tr><td style="font-weight:bold;vertical-align:top;">wsgi</td><td style="vertical-align:top;">:</td><td><div>&lt;gluon.main.LazyWSGI object at 0x0A8C64B0&gt;</div></td></tr></table></div>'
tRp72
sS'frames'
p73
(lp74
(dp75
S'file'
p76
S'D:\\distr\\web2py\\gluon\\restricted.py'
p77
sS'dump'
p78
(dp79
S'environment'
p80
S"{'A': <class 'gluon.html.A'>, 'ANY_OF': <class 'gluon.validators.ANY_OF'>, 'ASSIGNJS': <function ASSIGNJS>, 'AppConfig': <function AppConfig>, 'Auth': <class 'gluon.tools.Auth'>, 'B': <class 'gluon.html.B'>, 'BEAUTIFY': <class 'gluon.html.BEAUTIFY'>, 'BODY': <class 'gluon.html.BODY'>, 'BR': <class 'gluon.html.BR'>, 'BUTTON': <class 'gluon.html.BUTTON'>, ...}"
p81
sS'ccode'
p82
S'<code object <module> at 0D065260, file "D:\\distr\\web2py\\applications\\stocker\\models\\db.py", line 7>'
p83
ssS'lnum'
p84
I219
sS'lines'
p85
(dp86
I214
S'    if environment is None:'
p87
sI215
S'        environment = {}'
p88
sI216
S"    environment['__file__'] = layer"
p89
sI217
S"    environment['__name__'] = '__restricted__'"
p90
sI218
S'    try:'
p91
sI219
S'        exec(ccode, environment)'
p92
sI220
S'    except HTTP:'
p93
sI221
S'        raise'
p94
sI222
S'    except RestrictedError:'
p95
sI223
S'        # do not encapsulate (obfuscate) the original RestrictedError'
p96
ssS'call'
p97
S'(ccode=<code object <module> at 0D065260, file "D:\\distr\\web2py\\applications\\stocker\\models\\db.py", line 7>, environment={\'A\': <class \'gluon.html.A\'>, \'ANY_OF\': <class \'gluon.validators.ANY_OF\'>, \'ASSIGNJS\': <function ASSIGNJS>, \'AppConfig\': <function AppConfig>, \'Auth\': <class \'gluon.tools.Auth\'>, \'B\': <class \'gluon.html.B\'>, \'BEAUTIFY\': <class \'gluon.html.BEAUTIFY\'>, \'BODY\': <class \'gluon.html.BODY\'>, \'BR\': <class \'gluon.html.BR\'>, \'BUTTON\': <class \'gluon.html.BUTTON\'>, ...}, layer=r\'D:\\distr\\web2py\\applications\\stocker\\models\\db.py\', scode=<code object <module> at 0D065260, file "D:\\distr\\web2py\\applications\\stocker\\models\\db.py", line 7>)'
p98
sS'func'
p99
S'restricted'
p100
sa(dp101
g76
S'D:\\distr\\web2py\\applications\\stocker\\models\\db.py'
p102
sg78
(dp103
S'redefine'
p104
S'undefined'
p105
sS'builtinFalse'
p106
S'False'
p107
ssg84
I52
sg85
(dp108
I47
S"                    Field('prev_ao'),"
p109
sI48
S"                    Field('week_ago_ao'),"
p110
sI49
S"                    Field('fi2'),"
p111
sI50
S"                    Field('fi13'),"
p112
sI51
S"                    Field('volume'),"
p113
sI52
S'                    redefine=False)'
p114
sI53
S''
sI54
S'else:'
p115
sI55
S'    # ---------------------------------------------------------------------'
p116
sI56
S"    # connect to Google BigTable (optional 'google:datastore://namespace')"
p117
ssg97
S'()'
p118
sg99
S'<module>'
p119
sa(dp120
g76
S'D:\\distr\\web2py\\gluon\\packages\\dal\\pydal\\base.py'
p121
sg78
(dp122
S'fields'
p123
S'(<pydal.objects.Field object>, <pydal.objects.Field object>, <pydal.objects.Field object>, <pydal.objects.Field object>, <pydal.objects.Field object>, <pydal.objects.Field object>, <pydal.objects.Field object>, <pydal.objects.Field object>, <pydal.objects.Field object>, <pydal.objects.Field object>, <pydal.objects.Field object>, <pydal.objects.Field object>, <pydal.objects.Field object>, <pydal.objects.Field object>, <pydal.objects.Field object>, <pydal.objects.Field object>, <pydal.objects.Field object>)'
p124
sS'self'
p125
S'<DAL uri="postgres:******@localhost/postgres">'
p126
sS'args'
p127
S"{'redefine': False}"
p128
sS'tablename'
p129
S"'stock_w_fi'"
p130
sS'table'
p131
g105
sS'self.lazy_define_table'
p132
S'<bound method DAL.lazy_define_table of <DAL uri="postgres:******@localhost/postgres">>'
p133
ssg84
I586
sg85
(dp134
I581
S'                                  (tablename, invalid_args))'
p135
sI582
S'        if self._lazy_tables and tablename not in self._LAZY_TABLES:'
p136
sI583
S'            self._LAZY_TABLES[tablename] = (tablename, fields, args)'
p137
sI584
S'            table = None'
p138
sI585
S'        else:'
p139
sI586
S'            table = self.lazy_define_table(tablename, *fields, **args)'
p140
sI587
S'        if tablename not in self.tables:'
p141
sI588
S'            self.tables.append(tablename)'
p142
sI589
S'        return table'
p143
sI590
S''
ssg97
S'(self=<DAL uri="postgres:******@localhost/postgres">, tablename=\'stock_w_fi\', *fields=(<pydal.objects.Field object>, <pydal.objects.Field object>, <pydal.objects.Field object>, <pydal.objects.Field object>, <pydal.objects.Field object>, <pydal.objects.Field object>, <pydal.objects.Field object>, <pydal.objects.Field object>, <pydal.objects.Field object>, <pydal.objects.Field object>, <pydal.objects.Field object>, <pydal.objects.Field object>, <pydal.objects.Field object>, <pydal.objects.Field object>, <pydal.objects.Field object>, <pydal.objects.Field object>, <pydal.objects.Field object>), **args={\'redefine\': False})'
p144
sg99
S'define_table'
p145
sa(dp146
g76
S'D:\\distr\\web2py\\gluon\\packages\\dal\\pydal\\base.py'
p147
sg78
(dp148
S'polymodel'
p149
S'None'
p150
ssg84
I620
sg85
(dp151
I615
S'            try:'
p152
sI616
S'                GLOBAL_LOCKER.acquire()'
p153
sI617
S'                self._adapter.create_table('
p154
sI618
S'                    table, migrate=migrate,'
p155
sI619
S'                    fake_migrate=fake_migrate,'
p156
sI620
S'                    polymodel=polymodel)'
p157
sI621
S'            finally:'
p158
sI622
S'                GLOBAL_LOCKER.release()'
p159
sI623
S'        else:'
p160
sI624
S'            table._dbt = None'
p161
ssg97
S'(self=<DAL uri="postgres:******@localhost/postgres">, tablename=\'stock_w_fi\', *fields=(<pydal.objects.Field object>, <pydal.objects.Field object>, <pydal.objects.Field object>, <pydal.objects.Field object>, <pydal.objects.Field object>, <pydal.objects.Field object>, <pydal.objects.Field object>, <pydal.objects.Field object>, <pydal.objects.Field object>, <pydal.objects.Field object>, <pydal.objects.Field object>, <pydal.objects.Field object>, <pydal.objects.Field object>, <pydal.objects.Field object>, <pydal.objects.Field object>, <pydal.objects.Field object>, <pydal.objects.Field object>), **args={\'redefine\': False})'
p162
sg99
S'lazy_define_table'
p163
sa(dp164
g76
S'D:\\distr\\web2py\\gluon\\packages\\dal\\pydal\\adapters\\base.py'
p165
sg78
(dp166
S'self'
p167
S'<pydal.adapters.postgres.PostgrePsyco object>'
p168
sS'args'
p169
S'(<Table stock_w_fi (id, dt, ticker, close, prev_c...20, ao, prev_ao, week_ago_ao, fi2, fi13, volume)>,)'
p170
sS'self.migrator'
p171
S'<pydal.migrator.Migrator object>'
p172
sS'self.migrator.create_table'
p173
S'<bound method Migrator.create_table of <pydal.migrator.Migrator object>>'
p174
sS'kwargs'
p175
S"{'fake_migrate': False, 'migrate': True, 'polymodel': None}"
p176
ssg84
I797
sg85
(dp177
I800
S'        super(SQLAdapter, self)._drop_table_cleanup(table)'
p178
sI801
S'        if table._dbt:'
p179
sI792
S''
sI793
S'    def bulk_insert(self, table, items):'
p180
sI794
S'        return [self.insert(table, item) for item in items]'
p181
sI795
S''
sI796
S'    def create_table(self, *args, **kwargs):'
p182
sI797
S'        return self.migrator.create_table(*args, **kwargs)'
p183
sI798
S''
sI799
S'    def _drop_table_cleanup(self, table):'
p184
ssg97
S"(self=<pydal.adapters.postgres.PostgrePsyco object>, *args=(<Table stock_w_fi (id, dt, ticker, close, prev_c...20, ao, prev_ao, week_ago_ao, fi2, fi13, volume)>,), **kwargs={'fake_migrate': False, 'migrate': True, 'polymodel': None})"
p185
sg99
S'create_table'
p186
sa(dp187
g76
S'D:\\distr\\web2py\\gluon\\packages\\dal\\pydal\\migrator.py'
p188
sg78
(dp189
S'query'
p190
S'\'CREATE TABLE "stock_w_fi"(\\n    "id" SERIAL PRIMA..."fi13" VARCHAR(512),\\n    "volume" VARCHAR(512)\\n);\''
p191
sS'self'
p192
S'<pydal.migrator.Migrator object>'
p193
sS'self.adapter'
p194
S'<pydal.adapters.postgres.PostgrePsyco object>'
p195
sS'self.adapter.create_sequence_and_triggers'
p196
S'<bound method PostgrePsyco.create_sequence_and_t...of <pydal.adapters.postgres.PostgrePsyco object>>'
p197
sS'table'
p198
S'<Table stock_w_fi (id, dt, ticker, close, prev_c...20, ao, prev_ao, week_ago_ao, fi2, fi13, volume)>'
p199
ssg84
I277
sg85
(dp200
I272
S'            if table._dbt:'
p201
sI273
S"                self.log('timestamp: %s\\n%s\\n'"
p202
sI274
S'                         % (datetime.datetime.today().isoformat(),'
p203
sI275
S'                            query), table)'
p204
sI276
S'            if not fake_migrate:'
p205
sI277
S'                self.adapter.create_sequence_and_triggers(query, table)'
p206
sI278
S'                db.commit()'
p207
sI279
S'                # Postgres geom fields are added now,'
p208
sI280
S'                # after the table has been created'
p209
sI281
S'                for query in postcreation_fields:'
p210
ssg97
S'(self=<pydal.migrator.Migrator object>, table=<Table stock_w_fi (id, dt, ticker, close, prev_c...20, ao, prev_ao, week_ago_ao, fi2, fi13, volume)>, migrate=True, fake_migrate=False, polymodel=None)'
p211
sg99
g186
sa(dp212
g76
S'D:\\distr\\web2py\\gluon\\packages\\dal\\pydal\\adapters\\base.py'
p213
sg78
(dp214
S'query'
p215
S'\'CREATE TABLE "stock_w_fi"(\\n    "id" SERIAL PRIMA..."fi13" VARCHAR(512),\\n    "volume" VARCHAR(512)\\n);\''
p216
sS'self'
p217
S'<pydal.adapters.postgres.PostgrePsyco object>'
p218
sS'self.execute'
p219
S'<bound method PostgrePsyco.wrap of <pydal.adapters.postgres.PostgrePsyco object>>'
p220
ssg84
I880
sg85
(dp221
I875
S'    @with_connection'
p222
sI876
S'    def rollback_prepared(self, key):'
p223
sI877
S'        self.connection.rollback()'
p224
sI878
S''
sI879
S'    def create_sequence_and_triggers(self, query, table, **args):'
p225
sI880
S'        self.execute(query)'
p226
sI881
S''
sI882
S'    def sqlsafe_table(self, tablename, original_tablename=None):'
p227
sI883
S'        if original_tablename is not None:'
p228
sI884
S'            return self.dialect.alias(original_tablename, tablename)'
p229
ssg97
S'(self=<pydal.adapters.postgres.PostgrePsyco object>, query=\'CREATE TABLE "stock_w_fi"(\\n    "id" SERIAL PRIMA..."fi13" VARCHAR(512),\\n    "volume" VARCHAR(512)\\n);\', table=<Table stock_w_fi (id, dt, ticker, close, prev_c...20, ao, prev_ao, week_ago_ao, fi2, fi13, volume)>, **args={})'
p230
sg99
S'create_sequence_and_triggers'
p231
sa(dp232
g76
S'D:\\distr\\web2py\\gluon\\packages\\dal\\pydal\\adapters\\__init__.py'
p233
sg78
(dp234
S'kwargs'
p235
g21
sS'args'
p236
S'(<pydal.adapters.postgres.PostgrePsyco object>, \'CREATE TABLE "stock_w_fi"(\\n    "id" SERIAL PRIMA..."fi13" VARCHAR(512),\\n    "volume" VARCHAR(512)\\n);\')'
p237
sS'f'
S'<function execute>'
p238
ssg84
I67
sg85
(dp239
I64
S'            if len(args) > 1:'
p240
sI65
S'                raise ValueError(args[1])'
p241
sI66
S"            raise RuntimeError('no connection available')"
p242
sI67
S'        return f(*args, **kwargs)'
p243
sI68
S'    return wrap'
p244
sI69
S''
sI70
S''
sI71
S'from .base import SQLAdapter, NoSQLAdapter'
p245
sI62
S'    def wrap(*args, **kwargs):'
p246
sI63
S'        if not args[0].connection:'
p247
ssg97
S'(*args=(<pydal.adapters.postgres.PostgrePsyco object>, \'CREATE TABLE "stock_w_fi"(\\n    "id" SERIAL PRIMA..."fi13" VARCHAR(512),\\n    "volume" VARCHAR(512)\\n);\'), **kwargs={})'
p248
sg99
S'wrap'
p249
sa(dp250
g76
S'D:\\distr\\web2py\\gluon\\packages\\dal\\pydal\\adapters\\base.py'
p251
sg78
(dp252
S'rv'
p253
g105
sS'self'
p254
S'<pydal.adapters.postgres.PostgrePsyco object>'
p255
sS'args'
p256
S'(\'CREATE TABLE "stock_w_fi"(\\n    "id" SERIAL PRIMA..."fi13" VARCHAR(512),\\n    "volume" VARCHAR(512)\\n);\',)'
p257
sS'self.cursor'
p258
S'<cursor object at 0x0C09F930; closed: 0>'
p259
sS'command'
p260
S'\'CREATE TABLE "stock_w_fi"(\\n    "id" SERIAL PRIMA..."fi13" VARCHAR(512),\\n    "volume" VARCHAR(512)\\n);\''
p261
sS'self.cursor.execute'
p262
S'<built-in method execute of psycopg2._psycopg.cursor object>'
p263
sS'kwargs'
p264
g21
ssg84
I412
sg85
(dp265
I416
S''
sI407
S'    def execute(self, *args, **kwargs):'
p266
sI408
S'        command = self.filter_sql_command(args[0])'
p267
sI409
S'        handlers = self._build_handlers_for_execution()'
p268
sI410
S'        for handler in handlers:'
p269
sI411
S'            handler.before_execute(command)'
p270
sI412
S'        rv = self.cursor.execute(command, *args[1:], **kwargs)'
p271
sI413
S'        for handler in handlers:'
p272
sI414
S'            handler.after_execute(command)'
p273
sI415
S'        return rv'
p274
ssg97
S'(self=<pydal.adapters.postgres.PostgrePsyco object>, *args=(\'CREATE TABLE "stock_w_fi"(\\n    "id" SERIAL PRIMA..."fi13" VARCHAR(512),\\n    "volume" VARCHAR(512)\\n);\',), **kwargs={})'
p275
sg99
S'execute'
p276
sasS'pyver'
p277
S'Python 2.7.9: D:\\distr\\web2py\\web2py.exe (prefix: C:\\Python27)'
p278
sS'session'
p279
g71
(S's\x1a\x00\x00\x00<div><table></table></div>'
tRp280
sS'etype'
p281
S"<class 'psycopg2.ProgrammingError'>"
p282
sS'date'
p283
S'Tue Dec 12 16:22:16 2017'
p284
sS'response'
p285
g71
(S's$\x16\x00\x00<div><table><tr><td style="font-weight:bold;vertical-align:top;">body</td><td style="vertical-align:top;">:</td><td><div>&lt;cStringIO.StringO object at 0x0C077BE0&gt;</div></td></tr><tr><td style="font-weight:bold;vertical-align:top;">cookies</td><td style="vertical-align:top;">:</td><td><div><table><tr><td style="font-weight:bold;vertical-align:top;">session_id_stocker</td><td style="vertical-align:top;">:</td><td><div>127.0.0.1-fd4fc4d8-6576-4474-8ab8-bde077a323b5<table><tr><td style="font-weight:bold;vertical-align:top;">comment</td><td style="vertical-align:top;">:</td><td><div></div></td></tr><tr><td style="font-weight:bold;vertical-align:top;">domain</td><td style="vertical-align:top;">:</td><td><div></div></td></tr><tr><td style="font-weight:bold;vertical-align:top;">expires</td><td style="vertical-align:top;">:</td><td><div></div></td></tr><tr><td style="font-weight:bold;vertical-align:top;">httponly</td><td style="vertical-align:top;">:</td><td><div></div></td></tr><tr><td style="font-weight:bold;vertical-align:top;">max-age</td><td style="vertical-align:top;">:</td><td><div></div></td></tr><tr><td style="font-weight:bold;vertical-align:top;">path</td><td style="vertical-align:top;">:</td><td><div>/</div></td></tr><tr><td style="font-weight:bold;vertical-align:top;">secure</td><td style="vertical-align:top;">:</td><td><div></div></td></tr><tr><td style="font-weight:bold;vertical-align:top;">version</td><td style="vertical-align:top;">:</td><td><div></div></td></tr></table></div></td></tr></table></div></td></tr><tr><td style="font-weight:bold;vertical-align:top;">delimiters</td><td style="vertical-align:top;">:</td><td><div><table><tr><td><div>{{</div></td></tr><tr><td><div>}}</div></td></tr></table></div></td></tr><tr><td style="font-weight:bold;vertical-align:top;">files</td><td style="vertical-align:top;">:</td><td><div><table></table></div></td></tr><tr><td style="font-weight:bold;vertical-align:top;">flash</td><td style="vertical-align:top;">:</td><td><div></div></td></tr><tr><td style="font-weight:bold;vertical-align:top;">form_label_separator</td><td style="vertical-align:top;">:</td><td><div>: </div></td></tr><tr><td style="font-weight:bold;vertical-align:top;">formstyle</td><td style="vertical-align:top;">:</td><td><div>table3cols</div></td></tr><tr><td style="font-weight:bold;vertical-align:top;">generic_patterns</td><td style="vertical-align:top;">:</td><td><div><table><tr><td><div>*</div></td></tr></table></div></td></tr><tr><td style="font-weight:bold;vertical-align:top;">headers</td><td style="vertical-align:top;">:</td><td><div><table><tr><td style="font-weight:bold;vertical-align:top;">X-Powered-By</td><td style="vertical-align:top;">:</td><td><div>web2py</div></td></tr></table></div></td></tr><tr><td style="font-weight:bold;vertical-align:top;">menu</td><td style="vertical-align:top;">:</td><td><div><table></table></div></td></tr><tr><td style="font-weight:bold;vertical-align:top;">meta</td><td style="vertical-align:top;">:</td><td><div><table></table></div></td></tr><tr><td style="font-weight:bold;vertical-align:top;">models_to_run</td><td style="vertical-align:top;">:</td><td><div><table><tr><td><div>^\\w+\\.py$</div></td></tr><tr><td><div>^appadmin/\\w+\\.py$</div></td></tr><tr><td><div>^appadmin/hooks/\\w+\\.py$</div></td></tr></table></div></td></tr><tr><td style="font-weight:bold;vertical-align:top;">postprocessing</td><td style="vertical-align:top;">:</td><td><div><table></table></div></td></tr><tr><td style="font-weight:bold;vertical-align:top;">session_client</td><td style="vertical-align:top;">:</td><td><div>127.0.0.1</div></td></tr><tr><td style="font-weight:bold;vertical-align:top;">session_cookie_compression_level</td><td style="vertical-align:top;">:</td><td><div>None</div></td></tr><tr><td style="font-weight:bold;vertical-align:top;">session_cookie_expires</td><td style="vertical-align:top;">:</td><td><div>None</div></td></tr><tr><td style="font-weight:bold;vertical-align:top;">session_data_name</td><td style="vertical-align:top;">:</td><td><div>session_data_stocker</div></td></tr><tr><td style="font-weight:bold;vertical-align:top;">session_file</td><td style="vertical-align:top;">:</td><td><div>None</div></td></tr><tr><td style="font-weight:bold;vertical-align:top;">session_filename</td><td style="vertical-align:top;">:</td><td><div>D:\\distr\\web2py\\applications\\stocker\\sessions\\127.0.0.1-fd4fc4d8-6576-4474-8ab8-bde077a323b5</div></td></tr><tr><td style="font-weight:bold;vertical-align:top;">session_hash</td><td style="vertical-align:top;">:</td><td><div>c0762cbf4baf7f9af97c051e7fcb8083</div></td></tr><tr><td style="font-weight:bold;vertical-align:top;">session_id</td><td style="vertical-align:top;">:</td><td><div>127.0.0.1-fd4fc4d8-6576-4474-8ab8-bde077a323b5</div></td></tr><tr><td style="font-weight:bold;vertical-align:top;">session_id_name</td><td style="vertical-align:top;">:</td><td><div>session_id_stocker</div></td></tr><tr><td style="font-weight:bold;vertical-align:top;">session_masterapp</td><td style="vertical-align:top;">:</td><td><div>stocker</div></td></tr><tr><td style="font-weight:bold;vertical-align:top;">session_new</td><td style="vertical-align:top;">:</td><td><div>True</div></td></tr><tr><td style="font-weight:bold;vertical-align:top;">session_storage_type</td><td style="vertical-align:top;">:</td><td><div>file</div></td></tr><tr><td style="font-weight:bold;vertical-align:top;">status</td><td style="vertical-align:top;">:</td><td><div>200</div></td></tr><tr><td style="font-weight:bold;vertical-align:top;">view</td><td style="vertical-align:top;">:</td><td><div>appadmin/hooks.html</div></td></tr></table></div>'
tRp286
sS'locals'
p287
(dp288
S'handlers'
p289
S'[<pydal.helpers.classes.TimingHandler object>]'
p290
sS'self'
p291
S'<pydal.adapters.postgres.PostgrePsyco object>'
p292
sg52
S'(\'CREATE TABLE "stock_w_fi"(\\n    "id" SERIAL PRIMA..."fi13" VARCHAR(512),\\n    "volume" VARCHAR(512)\\n);\',)'
p293
sS'handler'
p294
S'<pydal.helpers.classes.TimingHandler object>'
p295
sS'command'
p296
S'\'CREATE TABLE "stock_w_fi"(\\n    "id" SERIAL PRIMA..."fi13" VARCHAR(512),\\n    "volume" VARCHAR(512)\\n);\''
p297
sS'kwargs'
p298
g21
sssS'traceback'
p299
S'Traceback (most recent call last):\n  File "D:\\distr\\web2py\\gluon\\restricted.py", line 219, in restricted\n    exec(ccode, environment)\n  File "D:\\distr\\web2py\\applications\\stocker\\models\\db.py", line 52, in <module>\n    redefine=False)\n  File "D:\\distr\\web2py\\gluon\\packages\\dal\\pydal\\base.py", line 586, in define_table\n    table = self.lazy_define_table(tablename, *fields, **args)\n  File "D:\\distr\\web2py\\gluon\\packages\\dal\\pydal\\base.py", line 620, in lazy_define_table\n    polymodel=polymodel)\n  File "D:\\distr\\web2py\\gluon\\packages\\dal\\pydal\\adapters\\base.py", line 797, in create_table\n    return self.migrator.create_table(*args, **kwargs)\n  File "D:\\distr\\web2py\\gluon\\packages\\dal\\pydal\\migrator.py", line 277, in create_table\n    self.adapter.create_sequence_and_triggers(query, table)\n  File "D:\\distr\\web2py\\gluon\\packages\\dal\\pydal\\adapters\\base.py", line 880, in create_sequence_and_triggers\n    self.execute(query)\n  File "D:\\distr\\web2py\\gluon\\packages\\dal\\pydal\\adapters\\__init__.py", line 67, in wrap\n    return f(*args, **kwargs)\n  File "D:\\distr\\web2py\\gluon\\packages\\dal\\pydal\\adapters\\base.py", line 412, in execute\n    rv = self.cursor.execute(command, *args[1:], **kwargs)\nProgrammingError: \xd0\x9e\xd0\xa8\xd0\x98\xd0\x91\xd0\x9a\xd0\x90:  \xd0\xbe\xd1\x82\xd0\xbd\xd0\xbe\xd1\x88\xd0\xb5\xd0\xbd\xd0\xb8\xd0\xb5 "stock_w_fi" \xd1\x83\xd0\xb6\xd0\xb5 \xd1\x81\xd1\x83\xd1\x89\xd0\xb5\xd1\x81\xd1\x82\xd0\xb2\xd1\x83\xd0\xb5\xd1\x82\n\n'
p300
s.